; Function Attrs: nounwind uwtable
define internal void @my_emit_message(ptr noundef %0, i32 noundef %1) #0 {
  %3 = load ptr, ptr %0, align 8
  %4 = getelementptr inbounds i8, ptr %3, i64 368
  %5 = load ptr, ptr %4, align 8
  tail call void %5(ptr noundef nonnull %0, i32 noundef %1) #26
  %6 = icmp slt i32 %1, 0
  br i1 %6, label %7, label %13

7:                                                ; preds = %2
  %8 = getelementptr inbounds i8, ptr %3, i64 376
  store i32 1, ptr %8, align 8
  %9 = getelementptr inbounds i8, ptr %3, i64 380
  %10 = load i32, ptr %9, align 4
  %.not = icmp eq i32 %10, 0
  br i1 %.not, label %13, label %11

11:                                               ; preds = %7
  %12 = getelementptr inbounds i8, ptr %3, i64 168
  tail call void @longjmp(ptr noundef nonnull %12, i32 noundef 1) #29
  unreachable

13:                                               ; preds = %7, %2
  ret void
}